target datalayout = "e-m:e-p270:32:32-p271:32:32-p272:64:64-i64:64-i128:128-f80:128-n8:16:32:64-S128"
target triple = "x86_64-pc-linux-gnu"

@.str.10 = private unnamed_addr constant [11 x i8] c"__newindex\00", align 1
@.str.11 = private unnamed_addr constant [18 x i8] c"REDIS_VERSION_NUM\00", align 1
@.str.12 = private unnamed_addr constant [14 x i8] c"REDIS_VERSION\00", align 1
@.str.13 = private unnamed_addr constant [12 x i8] c"255.255.255\00", align 1
@.str.19 = private unnamed_addr constant [6 x i8] c"pcall\00", align 1
@.str.20 = private unnamed_addr constant [5 x i8] c"call\00", align 1
@.str.21 = private unnamed_addr constant [8 x i8] c"setresp\00", align 1
@.str.22 = private unnamed_addr constant [8 x i8] c"sha1hex\00", align 1
@.str.23 = private unnamed_addr constant [12 x i8] c"error_reply\00", align 1
@.str.24 = private unnamed_addr constant [13 x i8] c"status_reply\00", align 1
@.str.25 = private unnamed_addr constant [9 x i8] c"set_repl\00", align 1
@.str.26 = private unnamed_addr constant [10 x i8] c"REPL_NONE\00", align 1
@.str.27 = private unnamed_addr constant [9 x i8] c"REPL_AOF\00", align 1
@.str.28 = private unnamed_addr constant [11 x i8] c"REPL_SLAVE\00", align 1
@.str.29 = private unnamed_addr constant [13 x i8] c"REPL_REPLICA\00", align 1
@.str.30 = private unnamed_addr constant [9 x i8] c"REPL_ALL\00", align 1
@.str.31 = private unnamed_addr constant [14 x i8] c"acl_check_cmd\00", align 1
@.str.32 = private unnamed_addr constant [6 x i8] c"redis\00", align 1
@.str.33 = private unnamed_addr constant [5 x i8] c"math\00", align 1
@.str.34 = private unnamed_addr constant [7 x i8] c"random\00", align 1
@.str.35 = private unnamed_addr constant [11 x i8] c"randomseed\00", align 1
@.str.56 = private unnamed_addr constant [7 x i8] c"string\00", align 1
@.str.57 = private unnamed_addr constant [6 x i8] c"cjson\00", align 1
@.str.58 = private unnamed_addr constant [4 x i8] c"bit\00", align 1
@.str.59 = private unnamed_addr constant [9 x i8] c"cmsgpack\00", align 1
@.str.60 = private unnamed_addr constant [6 x i8] c"table\00", align 1
@.str.61 = private unnamed_addr constant [7 x i8] c"struct\00", align 1
@.str.62 = private unnamed_addr constant [3 x i8] c"os\00", align 1
@.str.90 = private unnamed_addr constant [6 x i8] c"debug\00", align 1
@.str.97 = private unnamed_addr constant [1 x i8] zeroinitializer, align 1

; Function Attrs: nounwind uwtable
define internal void @luaLoadLib(ptr noundef %0, ptr noundef %1, ptr noundef %2) #0 {
  %4 = alloca ptr, align 8
  %5 = alloca ptr, align 8
  %6 = alloca ptr, align 8
  store ptr %0, ptr %4, align 8, !tbaa !5
  store ptr %1, ptr %5, align 8, !tbaa !10
  store ptr %2, ptr %6, align 8, !tbaa !12
  %7 = load ptr, ptr %4, align 8, !tbaa !5
  %8 = load ptr, ptr %6, align 8, !tbaa !12
  call void @lua_pushcclosure(ptr noundef %7, ptr noundef %8, i32 noundef 0)
  %9 = load ptr, ptr %4, align 8, !tbaa !5
  %10 = load ptr, ptr %5, align 8, !tbaa !10
  call void @lua_pushstring(ptr noundef %9, ptr noundef %10)
  %11 = load ptr, ptr %4, align 8, !tbaa !5
  call void @lua_call(ptr noundef %11, i32 noundef 1, i32 noundef 0)
  ret void
}

; Function Attrs: nounwind uwtable
define dso_local void @luaRegisterVersion(ptr noundef %0) #0 {
  %2 = alloca ptr, align 8
  store ptr %0, ptr %2, align 8, !tbaa !5
  %3 = load ptr, ptr %2, align 8, !tbaa !5
  call void @lua_pushstring(ptr noundef %3, ptr noundef @.str.11)
  %4 = load ptr, ptr %2, align 8, !tbaa !5
  call void @lua_pushnumber(ptr noundef %4, double noundef 0x416FFFFFE0000000)
  %5 = load ptr, ptr %2, align 8, !tbaa !5
  call void @lua_settable(ptr noundef %5, i32 noundef -3)
  %6 = load ptr, ptr %2, align 8, !tbaa !5
  call void @lua_pushstring(ptr noundef %6, ptr noundef @.str.12)
  %7 = load ptr, ptr %2, align 8, !tbaa !5
  call void @lua_pushstring(ptr noundef %7, ptr noundef @.str.13)
  %8 = load ptr, ptr %2, align 8, !tbaa !5
  call void @lua_settable(ptr noundef %8, i32 noundef -3)
  ret void
}

; Function Attrs: nounwind uwtable
define internal void @luaLoadLibraries(ptr noundef %0) #0 {
  %2 = alloca ptr, align 8
  store ptr %0, ptr %2, align 8, !tbaa !5
  %3 = load ptr, ptr %2, align 8, !tbaa !5
  call void @luaLoadLib(ptr noundef %3, ptr noundef @.str.97, ptr noundef @luaopen_base)
  %4 = load ptr, ptr %2, align 8, !tbaa !5
  call void @luaLoadLib(ptr noundef %4, ptr noundef @.str.60, ptr noundef @luaopen_table)
  %5 = load ptr, ptr %2, align 8, !tbaa !5
  call void @luaLoadLib(ptr noundef %5, ptr noundef @.str.56, ptr noundef @luaopen_string)
  %6 = load ptr, ptr %2, align 8, !tbaa !5
  call void @luaLoadLib(ptr noundef %6, ptr noundef @.str.33, ptr noundef @luaopen_math)
  %7 = load ptr, ptr %2, align 8, !tbaa !5
  call void @luaLoadLib(ptr noundef %7, ptr noundef @.str.90, ptr noundef @luaopen_debug)
  %8 = load ptr, ptr %2, align 8, !tbaa !5
  call void @luaLoadLib(ptr noundef %8, ptr noundef @.str.62, ptr noundef @luaopen_os)
  %9 = load ptr, ptr %2, align 8, !tbaa !5
  call void @luaLoadLib(ptr noundef %9, ptr noundef @.str.57, ptr noundef @luaopen_cjson)
  %10 = load ptr, ptr %2, align 8, !tbaa !5
  call void @luaLoadLib(ptr noundef %10, ptr noundef @.str.61, ptr noundef @luaopen_struct)
  %11 = load ptr, ptr %2, align 8, !tbaa !5
  call void @luaLoadLib(ptr noundef %11, ptr noundef @.str.59, ptr noundef @luaopen_cmsgpack)
  %12 = load ptr, ptr %2, align 8, !tbaa !5
  call void @luaLoadLib(ptr noundef %12, ptr noundef @.str.58, ptr noundef @luaopen_bit)
  ret void
}

; Function Attrs: nounwind uwtable
define dso_local void @luaSetAllowListProtection(ptr noundef %0) #0 {
  %2 = alloca ptr, align 8
  store ptr %0, ptr %2, align 8, !tbaa !5
  %3 = load ptr, ptr %2, align 8, !tbaa !5
  call void @lua_createtable(ptr noundef %3, i32 noundef 0, i32 noundef 0)
  %4 = load ptr, ptr %2, align 8, !tbaa !5
  call void @lua_pushcclosure(ptr noundef %4, ptr noundef @luaNewIndexAllowList, i32 noundef 0)
  %5 = load ptr, ptr %2, align 8, !tbaa !5
  call void @lua_setfield(ptr noundef %5, i32 noundef -2, ptr noundef @.str.10)
  %6 = load ptr, ptr %2, align 8, !tbaa !5
  %7 = call i32 @lua_setmetatable(ptr noundef %6, i32 noundef -2)
  ret void
}

; Function Attrs: nounwind uwtable
define dso_local void @luaRegisterRedisAPI(ptr noundef %0) #0 {
  %2 = alloca ptr, align 8
  store ptr %0, ptr %2, align 8, !tbaa !5
  %3 = load ptr, ptr %2, align 8, !tbaa !5
  call void @lua_pushvalue(ptr noundef %3, i32 noundef -10002)
  %4 = load ptr, ptr %2, align 8, !tbaa !5
  call void @luaSetAllowListProtection(ptr noundef %4)
  %5 = load ptr, ptr %2, align 8, !tbaa !5
  call void @lua_settop(ptr noundef %5, i32 noundef -2)
  %6 = load ptr, ptr %2, align 8, !tbaa !5
  call void @luaLoadLibraries(ptr noundef %6)
  %7 = load ptr, ptr %2, align 8, !tbaa !5
  call void @lua_pushcclosure(ptr noundef %7, ptr noundef @luaRedisPcall, i32 noundef 0)
  %8 = load ptr, ptr %2, align 8, !tbaa !5
  call void @lua_setfield(ptr noundef %8, i32 noundef -10002, ptr noundef @.str.19)
  %9 = load ptr, ptr %2, align 8, !tbaa !5
  call void @lua_createtable(ptr noundef %9, i32 noundef 0, i32 noundef 0)
  %10 = load ptr, ptr %2, align 8, !tbaa !5
  call void @lua_pushstring(ptr noundef %10, ptr noundef @.str.20)
  %11 = load ptr, ptr %2, align 8, !tbaa !5
  call void @lua_pushcclosure(ptr noundef %11, ptr noundef @luaRedisCallCommand, i32 noundef 0)
  %12 = load ptr, ptr %2, align 8, !tbaa !5
  call void @lua_settable(ptr noundef %12, i32 noundef -3)
  %13 = load ptr, ptr %2, align 8, !tbaa !5
  call void @lua_pushstring(ptr noundef %13, ptr noundef @.str.19)
  %14 = load ptr, ptr %2, align 8, !tbaa !5
  call void @lua_pushcclosure(ptr noundef %14, ptr noundef @luaRedisPCallCommand, i32 noundef 0)
  %15 = load ptr, ptr %2, align 8, !tbaa !5
  call void @lua_settable(ptr noundef %15, i32 noundef -3)
  %16 = load ptr, ptr %2, align 8, !tbaa !5
  call void @luaRegisterLogFunction(ptr noundef %16)
  %17 = load ptr, ptr %2, align 8, !tbaa !5
  call void @luaRegisterVersion(ptr noundef %17)
  %18 = load ptr, ptr %2, align 8, !tbaa !5
  call void @lua_pushstring(ptr noundef %18, ptr noundef @.str.21)
  %19 = load ptr, ptr %2, align 8, !tbaa !5
  call void @lua_pushcclosure(ptr noundef %19, ptr noundef @luaSetResp, i32 noundef 0)
  %20 = load ptr, ptr %2, align 8, !tbaa !5
  call void @lua_settable(ptr noundef %20, i32 noundef -3)
  %21 = load ptr, ptr %2, align 8, !tbaa !5
  call void @lua_pushstring(ptr noundef %21, ptr noundef @.str.22)
  %22 = load ptr, ptr %2, align 8, !tbaa !5
  call void @lua_pushcclosure(ptr noundef %22, ptr noundef @luaRedisSha1hexCommand, i32 noundef 0)
  %23 = load ptr, ptr %2, align 8, !tbaa !5
  call void @lua_settable(ptr noundef %23, i32 noundef -3)
  %24 = load ptr, ptr %2, align 8, !tbaa !5
  call void @lua_pushstring(ptr noundef %24, ptr noundef @.str.23)
  %25 = load ptr, ptr %2, align 8, !tbaa !5
  call void @lua_pushcclosure(ptr noundef %25, ptr noundef @luaRedisErrorReplyCommand, i32 noundef 0)
  %26 = load ptr, ptr %2, align 8, !tbaa !5
  call void @lua_settable(ptr noundef %26, i32 noundef -3)
  %27 = load ptr, ptr %2, align 8, !tbaa !5
  call void @lua_pushstring(ptr noundef %27, ptr noundef @.str.24)
  %28 = load ptr, ptr %2, align 8, !tbaa !5
  call void @lua_pushcclosure(ptr noundef %28, ptr noundef @luaRedisStatusReplyCommand, i32 noundef 0)
  %29 = load ptr, ptr %2, align 8, !tbaa !5
  call void @lua_settable(ptr noundef %29, i32 noundef -3)
  %30 = load ptr, ptr %2, align 8, !tbaa !5
  call void @lua_pushstring(ptr noundef %30, ptr noundef @.str.25)
  %31 = load ptr, ptr %2, align 8, !tbaa !5
  call void @lua_pushcclosure(ptr noundef %31, ptr noundef @luaRedisSetReplCommand, i32 noundef 0)
  %32 = load ptr, ptr %2, align 8, !tbaa !5
  call void @lua_settable(ptr noundef %32, i32 noundef -3)
  %33 = load ptr, ptr %2, align 8, !tbaa !5
  call void @lua_pushstring(ptr noundef %33, ptr noundef @.str.26)
  %34 = load ptr, ptr %2, align 8, !tbaa !5
  call void @lua_pushnumber(ptr noundef %34, double noundef 0.000000e+00)
  %35 = load ptr, ptr %2, align 8, !tbaa !5
  call void @lua_settable(ptr noundef %35, i32 noundef -3)
  %36 = load ptr, ptr %2, align 8, !tbaa !5
  call void @lua_pushstring(ptr noundef %36, ptr noundef @.str.27)
  %37 = load ptr, ptr %2, align 8, !tbaa !5
  call void @lua_pushnumber(ptr noundef %37, double noundef 1.000000e+00)
  %38 = load ptr, ptr %2, align 8, !tbaa !5
  call void @lua_settable(ptr noundef %38, i32 noundef -3)
  %39 = load ptr, ptr %2, align 8, !tbaa !5
  call void @lua_pushstring(ptr noundef %39, ptr noundef @.str.28)
  %40 = load ptr, ptr %2, align 8, !tbaa !5
  call void @lua_pushnumber(ptr noundef %40, double noundef 2.000000e+00)
  %41 = load ptr, ptr %2, align 8, !tbaa !5
  call void @lua_settable(ptr noundef %41, i32 noundef -3)
  %42 = load ptr, ptr %2, align 8, !tbaa !5
  call void @lua_pushstring(ptr noundef %42, ptr noundef @.str.29)
  %43 = load ptr, ptr %2, align 8, !tbaa !5
  call void @lua_pushnumber(ptr noundef %43, double noundef 2.000000e+00)
  %44 = load ptr, ptr %2, align 8, !tbaa !5
  call void @lua_settable(ptr noundef %44, i32 noundef -3)
  %45 = load ptr, ptr %2, align 8, !tbaa !5
  call void @lua_pushstring(ptr noundef %45, ptr noundef @.str.30)
  %46 = load ptr, ptr %2, align 8, !tbaa !5
  call void @lua_pushnumber(ptr noundef %46, double noundef 3.000000e+00)
  %47 = load ptr, ptr %2, align 8, !tbaa !5
  call void @lua_settable(ptr noundef %47, i32 noundef -3)
  %48 = load ptr, ptr %2, align 8, !tbaa !5
  call void @lua_pushstring(ptr noundef %48, ptr noundef @.str.31)
  %49 = load ptr, ptr %2, align 8, !tbaa !5
  call void @lua_pushcclosure(ptr noundef %49, ptr noundef @luaRedisAclCheckCmdPermissionsCommand, i32 noundef 0)
  %50 = load ptr, ptr %2, align 8, !tbaa !5
  call void @lua_settable(ptr noundef %50, i32 noundef -3)
  %51 = load ptr, ptr %2, align 8, !tbaa !5
  call void @lua_setfield(ptr noundef %51, i32 noundef -10002, ptr noundef @.str.32)
  %52 = load ptr, ptr %2, align 8, !tbaa !5
  call void @lua_getfield(ptr noundef %52, i32 noundef -10002, ptr noundef @.str.33)
  %53 = load ptr, ptr %2, align 8, !tbaa !5
  call void @lua_pushstring(ptr noundef %53, ptr noundef @.str.34)
  %54 = load ptr, ptr %2, align 8, !tbaa !5
  call void @lua_pushcclosure(ptr noundef %54, ptr noundef @redis_math_random, i32 noundef 0)
  %55 = load ptr, ptr %2, align 8, !tbaa !5
  call void @lua_settable(ptr noundef %55, i32 noundef -3)
  %56 = load ptr, ptr %2, align 8, !tbaa !5
  call void @lua_pushstring(ptr noundef %56, ptr noundef @.str.35)
  %57 = load ptr, ptr %2, align 8, !tbaa !5
  call void @lua_pushcclosure(ptr noundef %57, ptr noundef @redis_math_randomseed, i32 noundef 0)
  %58 = load ptr, ptr %2, align 8, !tbaa !5
  call void @lua_settable(ptr noundef %58, i32 noundef -3)
  %59 = load ptr, ptr %2, align 8, !tbaa !5
  call void @lua_setfield(ptr noundef %59, i32 noundef -10002, ptr noundef @.str.33)
  ret void
}