; Function Attrs: nounwind uwtable
define dso_local void @luaRegisterRedisAPI(ptr noundef %0) local_unnamed_addr #0 {
  tail call void @lua_pushvalue(ptr noundef %0, i32 noundef -10002) #11
  tail call void @lua_createtable(ptr noundef %0, i32 noundef 0, i32 noundef 0) #11
  tail call void @lua_pushcclosure(ptr noundef %0, ptr noundef nonnull @luaNewIndexAllowList, i32 noundef 0) #11
  tail call void @lua_setfield(ptr noundef %0, i32 noundef -2, ptr noundef nonnull @.str.10) #11
  %2 = tail call i32 @lua_setmetatable(ptr noundef %0, i32 noundef -2) #11
  tail call void @lua_settop(ptr noundef %0, i32 noundef -2) #11
  tail call void @lua_pushcclosure(ptr noundef %0, ptr noundef nonnull @luaopen_base, i32 noundef 0) #11
  tail call void @lua_pushstring(ptr noundef %0, ptr noundef nonnull @.str.97) #11
  tail call void @lua_call(ptr noundef %0, i32 noundef 1, i32 noundef 0) #11
  tail call void @lua_pushcclosure(ptr noundef %0, ptr noundef nonnull @luaopen_table, i32 noundef 0) #11
  tail call void @lua_pushstring(ptr noundef %0, ptr noundef nonnull @.str.60) #11
  tail call void @lua_call(ptr noundef %0, i32 noundef 1, i32 noundef 0) #11
  tail call void @lua_pushcclosure(ptr noundef %0, ptr noundef nonnull @luaopen_string, i32 noundef 0) #11
  tail call void @lua_pushstring(ptr noundef %0, ptr noundef nonnull @.str.56) #11
  tail call void @lua_call(ptr noundef %0, i32 noundef 1, i32 noundef 0) #11
  tail call void @lua_pushcclosure(ptr noundef %0, ptr noundef nonnull @luaopen_math, i32 noundef 0) #11
  tail call void @lua_pushstring(ptr noundef %0, ptr noundef nonnull @.str.33) #11
  tail call void @lua_call(ptr noundef %0, i32 noundef 1, i32 noundef 0) #11
  tail call void @lua_pushcclosure(ptr noundef %0, ptr noundef nonnull @luaopen_debug, i32 noundef 0) #11
  tail call void @lua_pushstring(ptr noundef %0, ptr noundef nonnull @.str.90) #11
  tail call void @lua_call(ptr noundef %0, i32 noundef 1, i32 noundef 0) #11
  tail call void @lua_pushcclosure(ptr noundef %0, ptr noundef nonnull @luaopen_os, i32 noundef 0) #11
  tail call void @lua_pushstring(ptr noundef %0, ptr noundef nonnull @.str.62) #11
  tail call void @lua_call(ptr noundef %0, i32 noundef 1, i32 noundef 0) #11
  tail call void @lua_pushcclosure(ptr noundef %0, ptr noundef nonnull @luaopen_cjson, i32 noundef 0) #11
  tail call void @lua_pushstring(ptr noundef %0, ptr noundef nonnull @.str.57) #11
  tail call void @lua_call(ptr noundef %0, i32 noundef 1, i32 noundef 0) #11
  tail call void @lua_pushcclosure(ptr noundef %0, ptr noundef nonnull @luaopen_struct, i32 noundef 0) #11
  tail call void @lua_pushstring(ptr noundef %0, ptr noundef nonnull @.str.61) #11
  tail call void @lua_call(ptr noundef %0, i32 noundef 1, i32 noundef 0) #11
  tail call void @lua_pushcclosure(ptr noundef %0, ptr noundef nonnull @luaopen_cmsgpack, i32 noundef 0) #11
  tail call void @lua_pushstring(ptr noundef %0, ptr noundef nonnull @.str.59) #11
  tail call void @lua_call(ptr noundef %0, i32 noundef 1, i32 noundef 0) #11
  tail call void @lua_pushcclosure(ptr noundef %0, ptr noundef nonnull @luaopen_bit, i32 noundef 0) #11
  tail call void @lua_pushstring(ptr noundef %0, ptr noundef nonnull @.str.58) #11
  tail call void @lua_call(ptr noundef %0, i32 noundef 1, i32 noundef 0) #11
  tail call void @lua_pushcclosure(ptr noundef %0, ptr noundef nonnull @luaRedisPcall, i32 noundef 0) #11
  tail call void @lua_setfield(ptr noundef %0, i32 noundef -10002, ptr noundef nonnull @.str.19) #11
  tail call void @lua_createtable(ptr noundef %0, i32 noundef 0, i32 noundef 0) #11
  tail call void @lua_pushstring(ptr noundef %0, ptr noundef nonnull @.str.20) #11
  tail call void @lua_pushcclosure(ptr noundef %0, ptr noundef nonnull @luaRedisCallCommand, i32 noundef 0) #11
  tail call void @lua_settable(ptr noundef %0, i32 noundef -3) #11
  tail call void @lua_pushstring(ptr noundef %0, ptr noundef nonnull @.str.19) #11
  tail call void @lua_pushcclosure(ptr noundef %0, ptr noundef nonnull @luaRedisPCallCommand, i32 noundef 0) #11
  tail call void @lua_settable(ptr noundef %0, i32 noundef -3) #11
  tail call void @luaRegisterLogFunction(ptr noundef %0)
  tail call void @lua_pushstring(ptr noundef %0, ptr noundef nonnull @.str.11) #11
  tail call void @lua_pushnumber(ptr noundef %0, double noundef 0x416FFFFFE0000000) #11
  tail call void @lua_settable(ptr noundef %0, i32 noundef -3) #11
  tail call void @lua_pushstring(ptr noundef %0, ptr noundef nonnull @.str.12) #11
  tail call void @lua_pushstring(ptr noundef %0, ptr noundef nonnull @.str.13) #11
  tail call void @lua_settable(ptr noundef %0, i32 noundef -3) #11
  tail call void @lua_pushstring(ptr noundef %0, ptr noundef nonnull @.str.21) #11
  tail call void @lua_pushcclosure(ptr noundef %0, ptr noundef nonnull @luaSetResp, i32 noundef 0) #11
  tail call void @lua_settable(ptr noundef %0, i32 noundef -3) #11
  tail call void @lua_pushstring(ptr noundef %0, ptr noundef nonnull @.str.22) #11
  tail call void @lua_pushcclosure(ptr noundef %0, ptr noundef nonnull @luaRedisSha1hexCommand, i32 noundef 0) #11
  tail call void @lua_settable(ptr noundef %0, i32 noundef -3) #11
  tail call void @lua_pushstring(ptr noundef %0, ptr noundef nonnull @.str.23) #11
  tail call void @lua_pushcclosure(ptr noundef %0, ptr noundef nonnull @luaRedisErrorReplyCommand, i32 noundef 0) #11
  tail call void @lua_settable(ptr noundef %0, i32 noundef -3) #11
  tail call void @lua_pushstring(ptr noundef %0, ptr noundef nonnull @.str.24) #11
  tail call void @lua_pushcclosure(ptr noundef %0, ptr noundef nonnull @luaRedisStatusReplyCommand, i32 noundef 0) #11
  tail call void @lua_settable(ptr noundef %0, i32 noundef -3) #11
  tail call void @lua_pushstring(ptr noundef %0, ptr noundef nonnull @.str.25) #11
  tail call void @lua_pushcclosure(ptr noundef %0, ptr noundef nonnull @luaRedisSetReplCommand, i32 noundef 0) #11
  tail call void @lua_settable(ptr noundef %0, i32 noundef -3) #11
  tail call void @lua_pushstring(ptr noundef %0, ptr noundef nonnull @.str.26) #11
  tail call void @lua_pushnumber(ptr noundef %0, double noundef 0.000000e+00) #11
  tail call void @lua_settable(ptr noundef %0, i32 noundef -3) #11
  tail call void @lua_pushstring(ptr noundef %0, ptr noundef nonnull @.str.27) #11
  tail call void @lua_pushnumber(ptr noundef %0, double noundef 1.000000e+00) #11
  tail call void @lua_settable(ptr noundef %0, i32 noundef -3) #11
  tail call void @lua_pushstring(ptr noundef %0, ptr noundef nonnull @.str.28) #11
  tail call void @lua_pushnumber(ptr noundef %0, double noundef 2.000000e+00) #11
  tail call void @lua_settable(ptr noundef %0, i32 noundef -3) #11
  tail call void @lua_pushstring(ptr noundef %0, ptr noundef nonnull @.str.29) #11
  tail call void @lua_pushnumber(ptr noundef %0, double noundef 2.000000e+00) #11
  tail call void @lua_settable(ptr noundef %0, i32 noundef -3) #11
  tail call void @lua_pushstring(ptr noundef %0, ptr noundef nonnull @.str.30) #11
  tail call void @lua_pushnumber(ptr noundef %0, double noundef 3.000000e+00) #11
  tail call void @lua_settable(ptr noundef %0, i32 noundef -3) #11
  tail call void @lua_pushstring(ptr noundef %0, ptr noundef nonnull @.str.31) #11
  tail call void @lua_pushcclosure(ptr noundef %0, ptr noundef nonnull @luaRedisAclCheckCmdPermissionsCommand, i32 noundef 0) #11
  tail call void @lua_settable(ptr noundef %0, i32 noundef -3) #11
  tail call void @lua_setfield(ptr noundef %0, i32 noundef -10002, ptr noundef nonnull @.str.32) #11
  tail call void @lua_getfield(ptr noundef %0, i32 noundef -10002, ptr noundef nonnull @.str.33) #11
  tail call void @lua_pushstring(ptr noundef %0, ptr noundef nonnull @.str.34) #11
  tail call void @lua_pushcclosure(ptr noundef %0, ptr noundef nonnull @redis_math_random, i32 noundef 0) #11
  tail call void @lua_settable(ptr noundef %0, i32 noundef -3) #11
  tail call void @lua_pushstring(ptr noundef %0, ptr noundef nonnull @.str.35) #11
  tail call void @lua_pushcclosure(ptr noundef %0, ptr noundef nonnull @redis_math_randomseed, i32 noundef 0) #11
  tail call void @lua_settable(ptr noundef %0, i32 noundef -3) #11
  tail call void @lua_setfield(ptr noundef %0, i32 noundef -10002, ptr noundef nonnull @.str.33) #11
  ret void
}